target datalayout = "e-m:e-p270:32:32-p271:32:32-p272:64:64-i64:64-i128:128-f80:128-n8:16:32:64-S128"
target triple = "x86_64-pc-linux-gnu"

%struct.expert_field = type { i32, i32 }
%struct._c_pkt_data = type { ptr, ptr, ptr, ptr, ptr, ptr, %struct._c_header }
%struct._c_header = type { i64, i64, i32, i16, i16, %struct._c_node_name }
%struct._c_node_name = type { ptr, ptr, i64, i32 }

@hf_pgid_ver = internal global i32 0, align 4
@hf_pgid_pool = internal global i32 0, align 4
@hf_pgid_seed = internal global i32 0, align 4
@hf_pgid_preferred = internal global i32 0, align 4
@ett_pg = internal global i32 0, align 4
@ei_ver_tooold = internal global %struct.expert_field zeroinitializer, align 4
@ei_ver_toonew = internal global %struct.expert_field zeroinitializer, align 4
@.str.1586 = private unnamed_addr constant [30 x i8] c"epan/dissectors/packet-ceph.c\00", align 1
@.str.1621 = private unnamed_addr constant [48 x i8] c"%s:%u: failed assertion min <= max (%ld <= %ld)\00", align 1
@.str.1622 = private unnamed_addr constant [61 x i8] c"Version %d is lower then the minimum supported version (%d).\00", align 1
@.str.1623 = private unnamed_addr constant [62 x i8] c"Version %d is higher then the maximum supported version (%d).\00", align 1
@.str.1663 = private unnamed_addr constant [12 x i8] c", Pool: %ld\00", align 1
@.str.1664 = private unnamed_addr constant [13 x i8] c", Seed: %08X\00", align 1
@.str.1665 = private unnamed_addr constant [13 x i8] c", Prefer: %d\00", align 1

; Function Attrs: null_pointer_is_valid sspstrong uwtable
define internal i32 @c_warn_ver(ptr noundef %0, i32 noundef %1, i32 noundef %2, i32 noundef %3, ptr noundef %4) #0 {
  %6 = alloca i32, align 4
  %7 = alloca ptr, align 8
  %8 = alloca i32, align 4
  %9 = alloca i32, align 4
  %10 = alloca i32, align 4
  %11 = alloca ptr, align 8
  store ptr %0, ptr %7, align 8
  store i32 %1, ptr %8, align 4
  store i32 %2, ptr %9, align 4
  store i32 %3, ptr %10, align 4
  store ptr %4, ptr %11, align 8
  %12 = load i32, ptr %9, align 4
  %13 = load i32, ptr %10, align 4
  %14 = icmp sle i32 %12, %13
  br i1 %14, label %15, label %16

15:                                               ; preds = %5
  br label %22

16:                                               ; preds = %5
  %17 = load i32, ptr %9, align 4
  %18 = sext i32 %17 to i64
  %19 = load i32, ptr %10, align 4
  %20 = sext i32 %19 to i64
  call void (ptr, ...) @proto_report_dissector_bug(ptr noundef @.str.1621, ptr noundef @.str.1586, i32 noundef 1743, i64 noundef %18, i64 noundef %20) #15
  unreachable

21:                                               ; No predecessors!
  br label %22

22:                                               ; preds = %21, %15
  %23 = load i32, ptr %8, align 4
  %24 = load i32, ptr %9, align 4
  %25 = icmp slt i32 %23, %24
  br i1 %25, label %26, label %34

26:                                               ; preds = %22
  %27 = load ptr, ptr %11, align 8
  %28 = getelementptr inbounds nuw %struct._c_pkt_data, ptr %27, i32 0, i32 5
  %29 = load ptr, ptr %28, align 8
  %30 = load ptr, ptr %7, align 8
  %31 = load i32, ptr %8, align 4
  %32 = load i32, ptr %9, align 4
  %33 = call ptr (ptr, ptr, ptr, ptr, ...) @expert_add_info_format(ptr noundef %29, ptr noundef %30, ptr noundef @ei_ver_tooold, ptr noundef @.str.1622, i32 noundef %31, i32 noundef %32)
  store i32 -1, ptr %6, align 4
  br label %47

34:                                               ; preds = %22
  %35 = load i32, ptr %8, align 4
  %36 = load i32, ptr %10, align 4
  %37 = icmp sgt i32 %35, %36
  br i1 %37, label %38, label %46

38:                                               ; preds = %34
  %39 = load ptr, ptr %11, align 8
  %40 = getelementptr inbounds nuw %struct._c_pkt_data, ptr %39, i32 0, i32 5
  %41 = load ptr, ptr %40, align 8
  %42 = load ptr, ptr %7, align 8
  %43 = load i32, ptr %8, align 4
  %44 = load i32, ptr %10, align 4
  %45 = call ptr (ptr, ptr, ptr, ptr, ...) @expert_add_info_format(ptr noundef %41, ptr noundef %42, ptr noundef @ei_ver_toonew, ptr noundef @.str.1623, i32 noundef %43, i32 noundef %44)
  store i32 1, ptr %6, align 4
  br label %47

46:                                               ; preds = %34
  store i32 0, ptr %6, align 4
  br label %47

47:                                               ; preds = %46, %38, %26
  %48 = load i32, ptr %6, align 4
  ret i32 %48
}

; Function Attrs: null_pointer_is_valid sspstrong uwtable
define internal i32 @c_dissect_pg(ptr noundef %0, i32 noundef %1, ptr noundef %2, i32 noundef %3, ptr noundef %4) #0 {
  %6 = alloca ptr, align 8
  %7 = alloca i32, align 4
  %8 = alloca ptr, align 8
  %9 = alloca i32, align 4
  %10 = alloca ptr, align 8
  %11 = alloca ptr, align 8
  %12 = alloca ptr, align 8
  %13 = alloca ptr, align 8
  %14 = alloca i8, align 1
  %15 = alloca i32, align 4
  store ptr %0, ptr %6, align 8
  store i32 %1, ptr %7, align 4
  store ptr %2, ptr %8, align 8
  store i32 %3, ptr %9, align 4
  store ptr %4, ptr %10, align 8
  call void @llvm.lifetime.start.p0(i64 8, ptr %11) #14
  call void @llvm.lifetime.start.p0(i64 8, ptr %12) #14
  call void @llvm.lifetime.start.p0(i64 8, ptr %13) #14
  call void @llvm.lifetime.start.p0(i64 1, ptr %14) #14
  call void @llvm.lifetime.start.p0(i64 4, ptr %15) #14
  %16 = load ptr, ptr %6, align 8
  %17 = load i32, ptr %7, align 4
  %18 = load ptr, ptr %8, align 8
  %19 = load i32, ptr %9, align 4
  %20 = call ptr @proto_tree_add_item(ptr noundef %16, i32 noundef %17, ptr noundef %18, i32 noundef %19, i32 noundef -1, i32 noundef 0)
  store ptr %20, ptr %11, align 8
  %21 = load ptr, ptr %11, align 8
  %22 = load i32, ptr @ett_pg, align 4
  %23 = call ptr @proto_item_add_subtree(ptr noundef %21, i32 noundef %22)
  store ptr %23, ptr %13, align 8
  %24 = load ptr, ptr %8, align 8
  %25 = load i32, ptr %9, align 4
  %26 = call zeroext i8 @tvb_get_uint8(ptr noundef %24, i32 noundef %25)
  store i8 %26, ptr %14, align 1
  %27 = load ptr, ptr %13, align 8
  %28 = load i32, ptr @hf_pgid_ver, align 4
  %29 = load ptr, ptr %8, align 8
  %30 = load i32, ptr %9, align 4
  %31 = call ptr @proto_tree_add_item(ptr noundef %27, i32 noundef %28, ptr noundef %29, i32 noundef %30, i32 noundef 1, i32 noundef -2147483648)
  store ptr %31, ptr %12, align 8
  %32 = load ptr, ptr %12, align 8
  %33 = load i8, ptr %14, align 1
  %34 = zext i8 %33 to i32
  %35 = load ptr, ptr %10, align 8
  %36 = call i32 @c_warn_ver(ptr noundef %32, i32 noundef %34, i32 noundef 1, i32 noundef 1, ptr noundef %35)
  %37 = load i32, ptr %9, align 4
  %38 = add i32 %37, 1
  store i32 %38, ptr %9, align 4
  %39 = load ptr, ptr %11, align 8
  %40 = load ptr, ptr %8, align 8
  %41 = load i32, ptr %9, align 4
  %42 = call i64 @tvb_get_letoh64(ptr noundef %40, i32 noundef %41)
  call void (ptr, ptr, ...) @proto_item_append_text(ptr noundef %39, ptr noundef @.str.1663, i64 noundef %42)
  %43 = load ptr, ptr %13, align 8
  %44 = load i32, ptr @hf_pgid_pool, align 4
  %45 = load ptr, ptr %8, align 8
  %46 = load i32, ptr %9, align 4
  %47 = call ptr @proto_tree_add_item(ptr noundef %43, i32 noundef %44, ptr noundef %45, i32 noundef %46, i32 noundef 8, i32 noundef -2147483648)
  %48 = load i32, ptr %9, align 4
  %49 = add i32 %48, 8
  store i32 %49, ptr %9, align 4
  %50 = load ptr, ptr %11, align 8
  %51 = load ptr, ptr %8, align 8
  %52 = load i32, ptr %9, align 4
  %53 = call i32 @tvb_get_letohl(ptr noundef %51, i32 noundef %52)
  call void (ptr, ptr, ...) @proto_item_append_text(ptr noundef %50, ptr noundef @.str.1664, i32 noundef %53)
  %54 = load ptr, ptr %13, align 8
  %55 = load i32, ptr @hf_pgid_seed, align 4
  %56 = load ptr, ptr %8, align 8
  %57 = load i32, ptr %9, align 4
  %58 = call ptr @proto_tree_add_item(ptr noundef %54, i32 noundef %55, ptr noundef %56, i32 noundef %57, i32 noundef 4, i32 noundef -2147483648)
  %59 = load i32, ptr %9, align 4
  %60 = add i32 %59, 4
  store i32 %60, ptr %9, align 4
  %61 = load ptr, ptr %8, align 8
  %62 = load i32, ptr %9, align 4
  %63 = call i32 @tvb_get_letohl(ptr noundef %61, i32 noundef %62)
  store i32 %63, ptr %15, align 4
  %64 = load i32, ptr %15, align 4
  %65 = icmp sge i32 %64, 0
  br i1 %65, label %66, label %69

66:                                               ; preds = %5
  %67 = load ptr, ptr %11, align 8
  %68 = load i32, ptr %15, align 4
  call void (ptr, ptr, ...) @proto_item_append_text(ptr noundef %67, ptr noundef @.str.1665, i32 noundef %68)
  br label %69

69:                                               ; preds = %66, %5
  %70 = load ptr, ptr %13, align 8
  %71 = load i32, ptr @hf_pgid_preferred, align 4
  %72 = load ptr, ptr %8, align 8
  %73 = load i32, ptr %9, align 4
  %74 = call ptr @proto_tree_add_item(ptr noundef %70, i32 noundef %71, ptr noundef %72, i32 noundef %73, i32 noundef 4, i32 noundef -2147483648)
  %75 = load i32, ptr %9, align 4
  %76 = add i32 %75, 4
  store i32 %76, ptr %9, align 4
  %77 = load ptr, ptr %11, align 8
  %78 = load ptr, ptr %8, align 8
  %79 = load i32, ptr %9, align 4
  call void @proto_item_set_end(ptr noundef %77, ptr noundef %78, i32 noundef %79)
  %80 = load i32, ptr %9, align 4
  call void @llvm.lifetime.end.p0(i64 4, ptr %15) #14
  call void @llvm.lifetime.end.p0(i64 1, ptr %14) #14
  call void @llvm.lifetime.end.p0(i64 8, ptr %13) #14
  call void @llvm.lifetime.end.p0(i64 8, ptr %12) #14
  call void @llvm.lifetime.end.p0(i64 8, ptr %11) #14
  ret i32 %80
}