; Function Attrs: null_pointer_is_valid sspstrong uwtable
define internal fastcc noundef i32 @c_dissect_pg(ptr noundef %0, i32 noundef %1, ptr noundef %2, i32 noundef %3, ptr noundef readonly captures(none) %4) unnamed_addr #0 {
  %6 = tail call ptr @proto_tree_add_item(ptr noundef %0, i32 noundef %1, ptr noundef %2, i32 noundef %3, i32 noundef -1, i32 noundef 0)
  %7 = load i32, ptr @ett_pg, align 4
  %8 = tail call ptr @proto_item_add_subtree(ptr noundef %6, i32 noundef %7)
  %9 = tail call zeroext i8 @tvb_get_uint8(ptr noundef %2, i32 noundef %3)
  %10 = load i32, ptr @hf_pgid_ver, align 4
  %11 = tail call ptr @proto_tree_add_item(ptr noundef %8, i32 noundef %10, ptr noundef %2, i32 noundef %3, i32 noundef 1, i32 noundef -2147483648)
  %12 = zext i8 %9 to i32
  switch i8 %9, label %17 [
    i8 0, label %13
    i8 1, label %c_warn_ver.exit
  ]

13:                                               ; preds = %5
  %14 = getelementptr inbounds nuw i8, ptr %4, i64 40
  %15 = load ptr, ptr %14, align 8
  %16 = tail call ptr (ptr, ptr, ptr, ptr, ...) @expert_add_info_format(ptr noundef %15, ptr noundef %11, ptr noundef nonnull @ei_ver_tooold, ptr noundef nonnull @.str.1622, i32 noundef range(i32 0, 256) %12, i32 noundef 1)
  br label %c_warn_ver.exit

17:                                               ; preds = %5
  %18 = getelementptr inbounds nuw i8, ptr %4, i64 40
  %19 = load ptr, ptr %18, align 8
  %20 = tail call ptr (ptr, ptr, ptr, ptr, ...) @expert_add_info_format(ptr noundef %19, ptr noundef %11, ptr noundef nonnull @ei_ver_toonew, ptr noundef nonnull @.str.1623, i32 noundef range(i32 0, 256) %12, i32 noundef 1)
  br label %c_warn_ver.exit

c_warn_ver.exit:                                  ; preds = %5, %13, %17
  %21 = add i32 %3, 1
  %22 = tail call i64 @tvb_get_letoh64(ptr noundef %2, i32 noundef %21)
  tail call void (ptr, ptr, ...) @proto_item_append_text(ptr noundef %6, ptr noundef nonnull @.str.1663, i64 noundef %22)
  %23 = load i32, ptr @hf_pgid_pool, align 4
  %24 = tail call ptr @proto_tree_add_item(ptr noundef %8, i32 noundef %23, ptr noundef %2, i32 noundef %21, i32 noundef 8, i32 noundef -2147483648)
  %25 = add i32 %3, 9
  %26 = tail call i32 @tvb_get_letohl(ptr noundef %2, i32 noundef %25)
  tail call void (ptr, ptr, ...) @proto_item_append_text(ptr noundef %6, ptr noundef nonnull @.str.1664, i32 noundef %26)
  %27 = load i32, ptr @hf_pgid_seed, align 4
  %28 = tail call ptr @proto_tree_add_item(ptr noundef %8, i32 noundef %27, ptr noundef %2, i32 noundef %25, i32 noundef 4, i32 noundef -2147483648)
  %29 = add i32 %3, 13
  %30 = tail call i32 @tvb_get_letohl(ptr noundef %2, i32 noundef %29)
  %31 = icmp sgt i32 %30, -1
  br i1 %31, label %32, label %33

32:                                               ; preds = %c_warn_ver.exit
  tail call void (ptr, ptr, ...) @proto_item_append_text(ptr noundef %6, ptr noundef nonnull @.str.1665, i32 noundef %30)
  br label %33

33:                                               ; preds = %32, %c_warn_ver.exit
  %34 = load i32, ptr @hf_pgid_preferred, align 4
  %35 = tail call ptr @proto_tree_add_item(ptr noundef %8, i32 noundef %34, ptr noundef %2, i32 noundef %29, i32 noundef 4, i32 noundef -2147483648)
  %36 = add i32 %3, 17
  tail call void @proto_item_set_end(ptr noundef %6, ptr noundef %2, i32 noundef %36)
  ret i32 %36
}